target datalayout = "e-m:e-p270:32:32-p271:32:32-p272:64:64-i64:64-i128:128-f80:128-n8:16:32:64-S128"
target triple = "x86_64-pc-linux-gnu"

@stdout = external global ptr, align 8
@traceFnNestingDepth = internal global i32 0, align 4
@.str.81 = private unnamed_addr constant [13 x i8] c"%s() enter.\0A\00", align 1

; Function Attrs: nounwind uwtable
define internal void @TraceEntry(ptr noundef %0, i32 noundef %1) #0 {
  %3 = alloca ptr, align 8
  %4 = alloca i32, align 4
  %5 = alloca [500 x i8], align 16
  store ptr %0, ptr %3, align 8, !tbaa !14
  store i32 %1, ptr %4, align 4, !tbaa !18
  call void @llvm.lifetime.start.p0(i64 500, ptr %5) #12
  %6 = getelementptr inbounds [500 x i8], ptr %5, i64 0, i64 0
  %7 = load i32, ptr @traceFnNestingDepth, align 4, !tbaa !18
  %8 = mul nsw i32 %7, 3
  %9 = load i32, ptr %4, align 4, !tbaa !18
  %10 = call ptr @utrace_functionName_77(i32 noundef %9)
  %11 = call i32 (ptr, i32, i32, ptr, ...) @utrace_format_77(ptr noundef %6, i32 noundef 500, i32 noundef %8, ptr noundef @.str.81, ptr noundef %10)
  %12 = getelementptr inbounds nuw [500 x i8], ptr %5, i64 0, i64 499
  store i8 0, ptr %12, align 1, !tbaa !20
  %13 = getelementptr inbounds [500 x i8], ptr %5, i64 0, i64 0
  %14 = load ptr, ptr @stdout, align 8, !tbaa !27
  %15 = call i32 @fputs(ptr noundef %13, ptr noundef %14)
  %16 = load i32, ptr @traceFnNestingDepth, align 4, !tbaa !18
  %17 = add nsw i32 %16, 1
  store i32 %17, ptr @traceFnNestingDepth, align 4, !tbaa !18
  call void @llvm.lifetime.end.p0(i64 500, ptr %5) #12
  ret void
}