; Function Attrs: nounwind uwtable
define internal void @TraceEntry(ptr readnone captures(none) %0, i32 noundef %1) #0 {
  %3 = alloca [500 x i8], align 16
  call void @llvm.lifetime.start.p0(i64 500, ptr nonnull %3) #23
  %4 = load i32, ptr @traceFnNestingDepth, align 4, !tbaa !18
  %5 = mul nsw i32 %4, 3
  %6 = tail call ptr @utrace_functionName_77(i32 noundef %1) #23
  %7 = call i32 (ptr, i32, i32, ptr, ...) @utrace_format_77(ptr noundef nonnull %3, i32 noundef 500, i32 noundef %5, ptr noundef nonnull @.str.81, ptr noundef %6) #23
  %8 = getelementptr inbounds nuw i8, ptr %3, i64 499
  store i8 0, ptr %8, align 1, !tbaa !11
  %9 = load ptr, ptr @stdout, align 8, !tbaa !16
  %10 = call i32 @fputs(ptr noundef nonnull %3, ptr noundef %9)
  %11 = load i32, ptr @traceFnNestingDepth, align 4, !tbaa !18
  %12 = add nsw i32 %11, 1
  store i32 %12, ptr @traceFnNestingDepth, align 4, !tbaa !18
  call void @llvm.lifetime.end.p0(i64 500, ptr nonnull %3) #23
  ret void
}